#include <math.h>
#include <stdio.h>
#include <stdlib.h>
#include <string.h>

int main(int argc, char* argv[])
{
	int m,i,j,e;
	int a[100];
	float s,q,w;
	scanf("%d",&m);
	for (i=0;i<m;i++)
	{
		scanf("%d",&a[i]);
		q=2,w=1,s=0;
	    for (j=1;j<=a[i];j++)
		{
		  s+=q/w;
		  e=q;
	   	  q=q+w;
	   	  w=e;
		}
		printf("%.3f\n",s);
	}
    return 0;
}
