; ModuleID = '29/1878.c'
source_filename = "29/1878.c"
target datalayout = "e-m:e-p270:32:32-p271:32:32-p272:64:64-i64:64-f80:128-n8:16:32:64-S128"
target triple = "x86_64-pc-linux-gnu"

@.str = private unnamed_addr constant [3 x i8] c"%d\00", align 1
@.str.1 = private unnamed_addr constant [6 x i8] c"%.3f\0A\00", align 1

; Function Attrs: noinline nounwind uwtable
define dso_local i32 @main(i32 %0, i8** %1) #0 {
  %3 = alloca i32, align 4
  %4 = alloca i32, align 4
  %5 = alloca i8**, align 8
  %6 = alloca i32, align 4
  %7 = alloca i32, align 4
  %8 = alloca i32, align 4
  %9 = alloca i32, align 4
  %10 = alloca [100 x i32], align 16
  %11 = alloca float, align 4
  %12 = alloca float, align 4
  %13 = alloca float, align 4
  store i32 0, i32* %3, align 4
  store i32 %0, i32* %4, align 4
  store i8** %1, i8*** %5, align 8
  %14 = call i32 (i8*, ...) @__isoc99_scanf(i8* getelementptr inbounds ([3 x i8], [3 x i8]* @.str, i64 0, i64 0), i32* %6)
  store i32 0, i32* %7, align 4
  br label %15

15:                                               ; preds = %51, %2
  %16 = load i32, i32* %7, align 4
  %17 = load i32, i32* %6, align 4
  %18 = icmp slt i32 %16, %17
  br i1 %18, label %19, label %54

19:                                               ; preds = %15
  %20 = load i32, i32* %7, align 4
  %21 = sext i32 %20 to i64
  %22 = getelementptr inbounds [100 x i32], [100 x i32]* %10, i64 0, i64 %21
  %23 = call i32 (i8*, ...) @__isoc99_scanf(i8* getelementptr inbounds ([3 x i8], [3 x i8]* @.str, i64 0, i64 0), i32* %22)
  store float 2.000000e+00, float* %12, align 4
  store float 1.000000e+00, float* %13, align 4
  store float 0.000000e+00, float* %11, align 4
  store i32 1, i32* %8, align 4
  br label %24

24:                                               ; preds = %44, %19
  %25 = load i32, i32* %8, align 4
  %26 = load i32, i32* %7, align 4
  %27 = sext i32 %26 to i64
  %28 = getelementptr inbounds [100 x i32], [100 x i32]* %10, i64 0, i64 %27
  %29 = load i32, i32* %28, align 4
  %30 = icmp sle i32 %25, %29
  br i1 %30, label %31, label %47

31:                                               ; preds = %24
  %32 = load float, float* %12, align 4
  %33 = load float, float* %13, align 4
  %34 = fdiv float %32, %33
  %35 = load float, float* %11, align 4
  %36 = fadd float %35, %34
  store float %36, float* %11, align 4
  %37 = load float, float* %12, align 4
  %38 = fptosi float %37 to i32
  store i32 %38, i32* %9, align 4
  %39 = load float, float* %12, align 4
  %40 = load float, float* %13, align 4
  %41 = fadd float %39, %40
  store float %41, float* %12, align 4
  %42 = load i32, i32* %9, align 4
  %43 = sitofp i32 %42 to float
  store float %43, float* %13, align 4
  br label %44

44:                                               ; preds = %31
  %45 = load i32, i32* %8, align 4
  %46 = add nsw i32 %45, 1
  store i32 %46, i32* %8, align 4
  br label %24

47:                                               ; preds = %24
  %48 = load float, float* %11, align 4
  %49 = fpext float %48 to double
  %50 = call i32 (i8*, ...) @printf(i8* getelementptr inbounds ([6 x i8], [6 x i8]* @.str.1, i64 0, i64 0), double %49)
  br label %51

51:                                               ; preds = %47
  %52 = load i32, i32* %7, align 4
  %53 = add nsw i32 %52, 1
  store i32 %53, i32* %7, align 4
  br label %15

54:                                               ; preds = %15
  ret i32 0
}

declare dso_local i32 @__isoc99_scanf(i8*, ...) #1

declare dso_local i32 @printf(i8*, ...) #1


!llvm.module.flags = !{!0}
!llvm.ident = !{!1}

!0 = !{i32 1, !"wchar_size", i32 4}
!1 = !{!"clang version 10.0.0-4ubuntu1 "}
